; Function Attrs: mustprogress uwtable
define hidden void @_ZN4cvc58internal6theory2fp14symfpuSymbolic20symbolicRoundingModeC2ERKS4_(ptr noundef nonnull writeonly align 8 captures(none) dereferenceable(8) initializes((0, 8)) %0, ptr noundef nonnull readonly align 8 captures(none) dereferenceable(8) %1) unnamed_addr #3 align 2 {
  %3 = load ptr, ptr %1, align 8, !tbaa !22
  store ptr %3, ptr %0, align 8, !tbaa !22
  %4 = load i64, ptr %3, align 8
  %5 = lshr i64 %4, 40
  %6 = trunc nuw nsw i64 %5 to i32
  %7 = and i32 %6, 1048575
  %8 = icmp samesign ult i32 %7, 1048574
  br i1 %8, label %9, label %14, !prof !24

9:                                                ; preds = %2
  %10 = add i64 %4, 1099511627776
  %11 = and i64 %10, 1152920405095219200
  %12 = and i64 %4, -1152920405095219201
  %13 = or disjoint i64 %11, %12
  store i64 %13, ptr %3, align 8
  br label %_ZN4cvc58internal6theory2fp14symfpuSymbolic11nodeWrapperC2ERKS4_.exit

14:                                               ; preds = %2
  %15 = icmp eq i32 %7, 1048574
  br i1 %15, label %16, label %_ZN4cvc58internal6theory2fp14symfpuSymbolic11nodeWrapperC2ERKS4_.exit, !prof !9

16:                                               ; preds = %14
  %17 = or i64 %4, 1152920405095219200
  store i64 %17, ptr %3, align 8
  tail call void @_ZN4cvc58internal4expr9NodeValue20markRefCountMaxedOutEv(ptr noundef nonnull align 8 dereferenceable(24) %3)
  br label %_ZN4cvc58internal6theory2fp14symfpuSymbolic11nodeWrapperC2ERKS4_.exit

_ZN4cvc58internal6theory2fp14symfpuSymbolic11nodeWrapperC2ERKS4_.exit: ; preds = %9, %14, %16
  ret void
}